target datalayout = "e-m:e-p270:32:32-p271:32:32-p272:64:64-i64:64-i128:128-f80:128-n8:16:32:64-S128"
target triple = "x86_64-pc-linux-gnu"

%struct.AVFilterContext = type { ptr, ptr, ptr, ptr, ptr, i32, ptr, ptr, i32, ptr, ptr, i32, i32, ptr, ptr, ptr, ptr, i32, ptr, i32, i32 }
%struct.AudioPsyClipContext = type { ptr, double, double, double, double, i32, i32, i32, ptr, ptr, i32, i32, i32, i32, i32, ptr, ptr, ptr, ptr, ptr, ptr, ptr, ptr, ptr, ptr, ptr, ptr, ptr, ptr, ptr, ptr, ptr, ptr }
%struct.AVFilterLink = type { ptr, ptr, ptr, ptr, i32, i32, i32, i32, %struct.AVRational, i32, i32, i32, %struct.AVChannelLayout, %struct.AVRational, ptr, i32, %struct.AVFilterFormatsConfig, %struct.AVFilterFormatsConfig }
%struct.AVChannelLayout = type { i32, i32, %union.anon.1, ptr }
%union.anon.1 = type { i64 }
%struct.AVRational = type { i32, i32 }
%struct.AVFilterFormatsConfig = type { ptr, ptr, ptr, ptr, ptr }
%struct.AVFrame = type { [8 x ptr], [8 x i32], ptr, i32, i32, i32, i32, i32, %struct.AVRational, i64, i64, %struct.AVRational, i32, ptr, i32, i32, [8 x ptr], ptr, i32, ptr, i32, i32, i32, i32, i32, i32, i32, i64, ptr, i32, ptr, ptr, i64, i64, i64, i64, ptr, %struct.AVChannelLayout, i64 }

; Function Attrs: inlinehint nounwind uwtable
define internal void @ff_outlink_set_status(ptr noundef %0, i32 noundef %1, i64 noundef %2) #6 {
  %4 = alloca ptr, align 8
  %5 = alloca i32, align 4
  %6 = alloca i64, align 8
  store ptr %0, ptr %4, align 8, !tbaa !37
  store i32 %1, ptr %5, align 4, !tbaa !24
  store i64 %2, ptr %6, align 8, !tbaa !42
  %7 = load ptr, ptr %4, align 8, !tbaa !37
  %8 = load i32, ptr %5, align 4, !tbaa !24
  %9 = load i64, ptr %6, align 8, !tbaa !42
  call void @ff_avfilter_link_set_in_status(ptr noundef %7, i32 noundef %8, i64 noundef %9)
  ret void
}

; Function Attrs: nounwind uwtable
define internal i32 @filter_frame(ptr noundef %0, ptr noundef %1) #2 {
  %3 = alloca ptr, align 8
  %4 = alloca ptr, align 8
  %5 = alloca ptr, align 8
  %6 = alloca ptr, align 8
  %7 = alloca ptr, align 8
  %8 = alloca ptr, align 8
  %9 = alloca i32, align 4
  store ptr %0, ptr %3, align 8, !tbaa !37
  store ptr %1, ptr %4, align 8, !tbaa !40
  call void @llvm.lifetime.start.p0(i64 8, ptr %5) #9
  %10 = load ptr, ptr %3, align 8, !tbaa !37
  %11 = getelementptr inbounds nuw %struct.AVFilterLink, ptr %10, i32 0, i32 2
  %12 = load ptr, ptr %11, align 8, !tbaa !44
  store ptr %12, ptr %5, align 8, !tbaa !4
  call void @llvm.lifetime.start.p0(i64 8, ptr %6) #9
  %13 = load ptr, ptr %5, align 8, !tbaa !4
  %14 = getelementptr inbounds nuw %struct.AVFilterContext, ptr %13, i32 0, i32 7
  %15 = load ptr, ptr %14, align 8, !tbaa !39
  %16 = getelementptr inbounds ptr, ptr %15, i64 0
  %17 = load ptr, ptr %16, align 8, !tbaa !37
  store ptr %17, ptr %6, align 8, !tbaa !37
  call void @llvm.lifetime.start.p0(i64 8, ptr %7) #9
  %18 = load ptr, ptr %5, align 8, !tbaa !4
  %19 = getelementptr inbounds nuw %struct.AVFilterContext, ptr %18, i32 0, i32 9
  %20 = load ptr, ptr %19, align 8, !tbaa !9
  store ptr %20, ptr %7, align 8, !tbaa !22
  call void @llvm.lifetime.start.p0(i64 8, ptr %8) #9
  call void @llvm.lifetime.start.p0(i64 4, ptr %9) #9
  %21 = load ptr, ptr %6, align 8, !tbaa !37
  %22 = load ptr, ptr %7, align 8, !tbaa !22
  %23 = getelementptr inbounds nuw %struct.AudioPsyClipContext, ptr %22, i32 0, i32 12
  %24 = load i32, ptr %23, align 8, !tbaa !41
  %25 = call ptr @ff_get_audio_buffer(ptr noundef %21, i32 noundef %24)
  store ptr %25, ptr %8, align 8, !tbaa !40
  %26 = load ptr, ptr %8, align 8, !tbaa !40
  %27 = icmp ne ptr %26, null
  br i1 %27, label %29, label %28

28:                                               ; preds = %2
  store i32 -12, ptr %9, align 4, !tbaa !24
  br label %69

29:                                               ; preds = %2
  %30 = load ptr, ptr %4, align 8, !tbaa !40
  %31 = load ptr, ptr %7, align 8, !tbaa !22
  %32 = getelementptr inbounds nuw %struct.AudioPsyClipContext, ptr %31, i32 0, i32 21
  store ptr %30, ptr %32, align 8, !tbaa !85
  %33 = load ptr, ptr %8, align 8, !tbaa !40
  %34 = load ptr, ptr %4, align 8, !tbaa !40
  %35 = call i32 @av_frame_copy_props(ptr noundef %33, ptr noundef %34)
  %36 = load ptr, ptr %5, align 8, !tbaa !4
  %37 = load ptr, ptr %8, align 8, !tbaa !40
  %38 = load ptr, ptr %6, align 8, !tbaa !37
  %39 = getelementptr inbounds nuw %struct.AVFilterLink, ptr %38, i32 0, i32 12
  %40 = getelementptr inbounds nuw %struct.AVChannelLayout, ptr %39, i32 0, i32 1
  %41 = load i32, ptr %40, align 4, !tbaa !71
  %42 = load ptr, ptr %5, align 8, !tbaa !4
  %43 = call i32 @ff_filter_get_nb_threads(ptr noundef %42) #11
  %44 = icmp sgt i32 %41, %43
  br i1 %44, label %45, label %48

45:                                               ; preds = %29
  %46 = load ptr, ptr %5, align 8, !tbaa !4
  %47 = call i32 @ff_filter_get_nb_threads(ptr noundef %46) #11
  br label %53

48:                                               ; preds = %29
  %49 = load ptr, ptr %6, align 8, !tbaa !37
  %50 = getelementptr inbounds nuw %struct.AVFilterLink, ptr %49, i32 0, i32 12
  %51 = getelementptr inbounds nuw %struct.AVChannelLayout, ptr %50, i32 0, i32 1
  %52 = load i32, ptr %51, align 4, !tbaa !71
  br label %53

53:                                               ; preds = %48, %45
  %54 = phi i32 [ %47, %45 ], [ %52, %48 ]
  %55 = call i32 @ff_filter_execute(ptr noundef %36, ptr noundef @psy_channels, ptr noundef %37, ptr noundef null, i32 noundef %54)
  %56 = load ptr, ptr %4, align 8, !tbaa !40
  %57 = getelementptr inbounds nuw %struct.AVFrame, ptr %56, i32 0, i32 9
  %58 = load i64, ptr %57, align 8, !tbaa !86
  %59 = load ptr, ptr %8, align 8, !tbaa !40
  %60 = getelementptr inbounds nuw %struct.AVFrame, ptr %59, i32 0, i32 9
  store i64 %58, ptr %60, align 8, !tbaa !86
  %61 = load ptr, ptr %4, align 8, !tbaa !40
  %62 = getelementptr inbounds nuw %struct.AVFrame, ptr %61, i32 0, i32 5
  %63 = load i32, ptr %62, align 8, !tbaa !91
  %64 = load ptr, ptr %8, align 8, !tbaa !40
  %65 = getelementptr inbounds nuw %struct.AVFrame, ptr %64, i32 0, i32 5
  store i32 %63, ptr %65, align 8, !tbaa !91
  %66 = load ptr, ptr %6, align 8, !tbaa !37
  %67 = load ptr, ptr %8, align 8, !tbaa !40
  %68 = call i32 @ff_filter_frame(ptr noundef %66, ptr noundef %67)
  store i32 %68, ptr %9, align 4, !tbaa !24
  br label %69

69:                                               ; preds = %53, %28
  call void @av_frame_free(ptr noundef %4)
  %70 = load ptr, ptr %7, align 8, !tbaa !22
  %71 = getelementptr inbounds nuw %struct.AudioPsyClipContext, ptr %70, i32 0, i32 21
  store ptr null, ptr %71, align 8, !tbaa !85
  %72 = load i32, ptr %9, align 4, !tbaa !24
  %73 = icmp slt i32 %72, 0
  br i1 %73, label %74, label %76

74:                                               ; preds = %69
  %75 = load i32, ptr %9, align 4, !tbaa !24
  br label %77

76:                                               ; preds = %69
  br label %77

77:                                               ; preds = %76, %74
  %78 = phi i32 [ %75, %74 ], [ 0, %76 ]
  call void @llvm.lifetime.end.p0(i64 4, ptr %9) #9
  call void @llvm.lifetime.end.p0(i64 8, ptr %8) #9
  call void @llvm.lifetime.end.p0(i64 8, ptr %7) #9
  call void @llvm.lifetime.end.p0(i64 8, ptr %6) #9
  call void @llvm.lifetime.end.p0(i64 8, ptr %5) #9
  ret i32 %78
}

; Function Attrs: nounwind uwtable
define internal i32 @activate(ptr noundef %0) #2 {
  %2 = alloca i32, align 4
  %3 = alloca ptr, align 8
  %4 = alloca ptr, align 8
  %5 = alloca ptr, align 8
  %6 = alloca ptr, align 8
  %7 = alloca ptr, align 8
  %8 = alloca i32, align 4
  %9 = alloca i32, align 4
  %10 = alloca i64, align 8
  %11 = alloca i32, align 4
  %12 = alloca i32, align 4
  store ptr %0, ptr %3, align 8, !tbaa !4
  call void @llvm.lifetime.start.p0(i64 8, ptr %4) #9
  %13 = load ptr, ptr %3, align 8, !tbaa !4
  %14 = getelementptr inbounds nuw %struct.AVFilterContext, ptr %13, i32 0, i32 4
  %15 = load ptr, ptr %14, align 8, !tbaa !36
  %16 = getelementptr inbounds ptr, ptr %15, i64 0
  %17 = load ptr, ptr %16, align 8, !tbaa !37
  store ptr %17, ptr %4, align 8, !tbaa !37
  call void @llvm.lifetime.start.p0(i64 8, ptr %5) #9
  %18 = load ptr, ptr %3, align 8, !tbaa !4
  %19 = getelementptr inbounds nuw %struct.AVFilterContext, ptr %18, i32 0, i32 7
  %20 = load ptr, ptr %19, align 8, !tbaa !39
  %21 = getelementptr inbounds ptr, ptr %20, i64 0
  %22 = load ptr, ptr %21, align 8, !tbaa !37
  store ptr %22, ptr %5, align 8, !tbaa !37
  call void @llvm.lifetime.start.p0(i64 8, ptr %6) #9
  %23 = load ptr, ptr %3, align 8, !tbaa !4
  %24 = getelementptr inbounds nuw %struct.AVFilterContext, ptr %23, i32 0, i32 9
  %25 = load ptr, ptr %24, align 8, !tbaa !9
  store ptr %25, ptr %6, align 8, !tbaa !22
  call void @llvm.lifetime.start.p0(i64 8, ptr %7) #9
  store ptr null, ptr %7, align 8, !tbaa !40
  call void @llvm.lifetime.start.p0(i64 4, ptr %8) #9
  store i32 0, ptr %8, align 4, !tbaa !24
  call void @llvm.lifetime.start.p0(i64 4, ptr %9) #9
  call void @llvm.lifetime.start.p0(i64 8, ptr %10) #9
  br label %26

26:                                               ; preds = %1
  call void @llvm.lifetime.start.p0(i64 4, ptr %11) #9
  %27 = load ptr, ptr %5, align 8, !tbaa !37
  %28 = call i32 @ff_outlink_get_status(ptr noundef %27)
  store i32 %28, ptr %11, align 4, !tbaa !24
  %29 = load i32, ptr %11, align 4, !tbaa !24
  %30 = icmp ne i32 %29, 0
  br i1 %30, label %31, label %34

31:                                               ; preds = %26
  %32 = load ptr, ptr %4, align 8, !tbaa !37
  %33 = load i32, ptr %11, align 4, !tbaa !24
  call void @ff_inlink_set_status(ptr noundef %32, i32 noundef %33)
  store i32 0, ptr %2, align 4
  store i32 1, ptr %12, align 4
  br label %35

34:                                               ; preds = %26
  store i32 0, ptr %12, align 4
  br label %35

35:                                               ; preds = %34, %31
  call void @llvm.lifetime.end.p0(i64 4, ptr %11) #9
  %36 = load i32, ptr %12, align 4
  switch i32 %36, label %84 [
    i32 0, label %37
  ]

37:                                               ; preds = %35
  br label %38

38:                                               ; preds = %37
  br label %39

39:                                               ; preds = %38
  %40 = load ptr, ptr %4, align 8, !tbaa !37
  %41 = load ptr, ptr %6, align 8, !tbaa !22
  %42 = getelementptr inbounds nuw %struct.AudioPsyClipContext, ptr %41, i32 0, i32 12
  %43 = load i32, ptr %42, align 8, !tbaa !41
  %44 = load ptr, ptr %6, align 8, !tbaa !22
  %45 = getelementptr inbounds nuw %struct.AudioPsyClipContext, ptr %44, i32 0, i32 12
  %46 = load i32, ptr %45, align 8, !tbaa !41
  %47 = call i32 @ff_inlink_consume_samples(ptr noundef %40, i32 noundef %43, i32 noundef %46, ptr noundef %7)
  store i32 %47, ptr %8, align 4, !tbaa !24
  %48 = load i32, ptr %8, align 4, !tbaa !24
  %49 = icmp slt i32 %48, 0
  br i1 %49, label %50, label %52

50:                                               ; preds = %39
  %51 = load i32, ptr %8, align 4, !tbaa !24
  store i32 %51, ptr %2, align 4
  store i32 1, ptr %12, align 4
  br label %84

52:                                               ; preds = %39
  %53 = load i32, ptr %8, align 4, !tbaa !24
  %54 = icmp sgt i32 %53, 0
  br i1 %54, label %55, label %59

55:                                               ; preds = %52
  %56 = load ptr, ptr %4, align 8, !tbaa !37
  %57 = load ptr, ptr %7, align 8, !tbaa !40
  %58 = call i32 @filter_frame(ptr noundef %56, ptr noundef %57)
  store i32 %58, ptr %2, align 4
  store i32 1, ptr %12, align 4
  br label %84

59:                                               ; preds = %52
  %60 = load ptr, ptr %4, align 8, !tbaa !37
  %61 = call i32 @ff_inlink_acknowledge_status(ptr noundef %60, ptr noundef %9, ptr noundef %10)
  %62 = icmp ne i32 %61, 0
  br i1 %62, label %63, label %67

63:                                               ; preds = %59
  %64 = load ptr, ptr %5, align 8, !tbaa !37
  %65 = load i32, ptr %9, align 4, !tbaa !24
  %66 = load i64, ptr %10, align 8, !tbaa !42
  call void @ff_outlink_set_status(ptr noundef %64, i32 noundef %65, i64 noundef %66)
  store i32 0, ptr %2, align 4
  store i32 1, ptr %12, align 4
  br label %84

67:                                               ; preds = %59
  %68 = load ptr, ptr %4, align 8, !tbaa !37
  %69 = call i32 @ff_inlink_queued_samples(ptr noundef %68)
  %70 = load ptr, ptr %6, align 8, !tbaa !22
  %71 = getelementptr inbounds nuw %struct.AudioPsyClipContext, ptr %70, i32 0, i32 12
  %72 = load i32, ptr %71, align 8, !tbaa !41
  %73 = icmp sge i32 %69, %72
  br i1 %73, label %74, label %76

74:                                               ; preds = %67
  %75 = load ptr, ptr %3, align 8, !tbaa !4
  call void @ff_filter_set_ready(ptr noundef %75, i32 noundef 10)
  br label %83

76:                                               ; preds = %67
  %77 = load ptr, ptr %5, align 8, !tbaa !37
  %78 = call i32 @ff_outlink_frame_wanted(ptr noundef %77)
  %79 = icmp ne i32 %78, 0
  br i1 %79, label %80, label %82

80:                                               ; preds = %76
  %81 = load ptr, ptr %4, align 8, !tbaa !37
  call void @ff_inlink_request_frame(ptr noundef %81)
  br label %82

82:                                               ; preds = %80, %76
  br label %83

83:                                               ; preds = %82, %74
  store i32 0, ptr %2, align 4
  store i32 1, ptr %12, align 4
  br label %84

84:                                               ; preds = %83, %63, %55, %50, %35
  call void @llvm.lifetime.end.p0(i64 8, ptr %10) #9
  call void @llvm.lifetime.end.p0(i64 4, ptr %9) #9
  call void @llvm.lifetime.end.p0(i64 4, ptr %8) #9
  call void @llvm.lifetime.end.p0(i64 8, ptr %7) #9
  call void @llvm.lifetime.end.p0(i64 8, ptr %6) #9
  call void @llvm.lifetime.end.p0(i64 8, ptr %5) #9
  call void @llvm.lifetime.end.p0(i64 8, ptr %4) #9
  %85 = load i32, ptr %2, align 4
  ret i32 %85
}