; Function Attrs: nounwind uwtable
define internal range(i32 -2147483648, 1) i32 @activate(ptr noundef %0) #2 {
  %2 = alloca ptr, align 8
  %3 = alloca ptr, align 8
  %4 = alloca i32, align 4
  %5 = alloca i64, align 8
  %6 = getelementptr inbounds nuw i8, ptr %0, i64 32
  %7 = load ptr, ptr %6, align 8, !tbaa !31
  %8 = load ptr, ptr %7, align 8, !tbaa !32
  %9 = getelementptr inbounds nuw i8, ptr %0, i64 56
  %10 = load ptr, ptr %9, align 8, !tbaa !34
  %11 = load ptr, ptr %10, align 8, !tbaa !32
  %12 = getelementptr inbounds nuw i8, ptr %0, i64 72
  %13 = load ptr, ptr %12, align 8, !tbaa !4
  call void @llvm.lifetime.start.p0(i64 8, ptr nonnull %3) #10
  store ptr null, ptr %3, align 8, !tbaa !35
  call void @llvm.lifetime.start.p0(i64 4, ptr nonnull %4) #10
  call void @llvm.lifetime.start.p0(i64 8, ptr nonnull %5) #10
  %14 = tail call i32 @ff_outlink_get_status(ptr noundef %11) #10
  %.not = icmp eq i32 %14, 0
  br i1 %.not, label %.critedge, label %15

15:                                               ; preds = %1
  tail call void @ff_inlink_set_status(ptr noundef %8, i32 noundef %14) #10
  br label %60

.critedge:                                        ; preds = %1
  %16 = getelementptr inbounds nuw i8, ptr %13, i64 80
  %17 = load i32, ptr %16, align 8, !tbaa !36
  %18 = call i32 @ff_inlink_consume_samples(ptr noundef %8, i32 noundef %17, i32 noundef %17, ptr noundef nonnull %3) #10
  %19 = icmp slt i32 %18, 0
  br i1 %19, label %60, label %20

20:                                               ; preds = %.critedge
  %.not26 = icmp eq i32 %18, 0
  br i1 %.not26, label %48, label %21

21:                                               ; preds = %20
  %22 = load ptr, ptr %3, align 8, !tbaa !35
  %23 = getelementptr i8, ptr %8, i64 16
  %.val = load ptr, ptr %23, align 8, !tbaa !37
  call void @llvm.lifetime.start.p0(i64 8, ptr nonnull %2)
  store ptr %22, ptr %2, align 8, !tbaa !35
  %24 = getelementptr inbounds nuw i8, ptr %.val, i64 56
  %25 = load ptr, ptr %24, align 8, !tbaa !34
  %26 = load ptr, ptr %25, align 8, !tbaa !32
  %27 = getelementptr inbounds nuw i8, ptr %.val, i64 72
  %28 = load ptr, ptr %27, align 8, !tbaa !4
  %29 = getelementptr inbounds nuw i8, ptr %28, i64 80
  %30 = load i32, ptr %29, align 8, !tbaa !36
  %31 = call ptr @ff_get_audio_buffer(ptr noundef %26, i32 noundef %30) #10
  %.not.i = icmp eq ptr %31, null
  br i1 %.not.i, label %filter_frame.exit, label %32

32:                                               ; preds = %21
  %33 = getelementptr inbounds nuw i8, ptr %28, i64 144
  store ptr %22, ptr %33, align 8, !tbaa !46
  %34 = call i32 @av_frame_copy_props(ptr noundef nonnull %31, ptr noundef %22) #10
  %35 = getelementptr inbounds nuw i8, ptr %26, i64 76
  %36 = load i32, ptr %35, align 4, !tbaa !47
  %37 = call i32 @ff_filter_get_nb_threads(ptr noundef nonnull %.val) #11
  %..i = call i32 @llvm.smin.i32(i32 %36, i32 %37)
  %38 = call i32 @ff_filter_execute(ptr noundef nonnull %.val, ptr noundef nonnull @psy_channels, ptr noundef nonnull %31, ptr noundef null, i32 noundef %..i) #10
  %39 = getelementptr inbounds nuw i8, ptr %22, i64 136
  %40 = load i64, ptr %39, align 8, !tbaa !48
  %41 = getelementptr inbounds nuw i8, ptr %31, i64 136
  store i64 %40, ptr %41, align 8, !tbaa !48
  %42 = getelementptr inbounds nuw i8, ptr %22, i64 112
  %43 = load i32, ptr %42, align 8, !tbaa !54
  %44 = getelementptr inbounds nuw i8, ptr %31, i64 112
  store i32 %43, ptr %44, align 8, !tbaa !54
  %45 = call i32 @ff_filter_frame(ptr noundef %26, ptr noundef nonnull %31) #10
  br label %filter_frame.exit

filter_frame.exit:                                ; preds = %21, %32
  %.0.i = phi i32 [ %45, %32 ], [ -12, %21 ]
  call void @av_frame_free(ptr noundef nonnull %2) #10
  %46 = getelementptr inbounds nuw i8, ptr %28, i64 144
  store ptr null, ptr %46, align 8, !tbaa !46
  %47 = call range(i32 -2147483648, 1) i32 @llvm.smin.i32(i32 %.0.i, i32 0)
  call void @llvm.lifetime.end.p0(i64 8, ptr nonnull %2)
  br label %60

48:                                               ; preds = %20
  %49 = call i32 @ff_inlink_acknowledge_status(ptr noundef %8, ptr noundef nonnull %4, ptr noundef nonnull %5) #10
  %.not27 = icmp eq i32 %49, 0
  br i1 %.not27, label %53, label %50

50:                                               ; preds = %48
  %51 = load i32, ptr %4, align 4, !tbaa !55
  %52 = load i64, ptr %5, align 8, !tbaa !56
  call void @ff_avfilter_link_set_in_status(ptr noundef %11, i32 noundef %51, i64 noundef %52) #10
  br label %60

53:                                               ; preds = %48
  %54 = call i32 @ff_inlink_queued_samples(ptr noundef %8) #10
  %55 = load i32, ptr %16, align 8, !tbaa !36
  %.not28 = icmp slt i32 %54, %55
  br i1 %.not28, label %57, label %56

56:                                               ; preds = %53
  call void @ff_filter_set_ready(ptr noundef nonnull %0, i32 noundef 10) #10
  br label %60

57:                                               ; preds = %53
  %58 = call i32 @ff_outlink_frame_wanted(ptr noundef %11) #10
  %.not29 = icmp eq i32 %58, 0
  br i1 %.not29, label %60, label %59

59:                                               ; preds = %57
  call void @ff_inlink_request_frame(ptr noundef %8) #10
  br label %60

60:                                               ; preds = %15, %56, %59, %57, %.critedge, %50, %filter_frame.exit
  %.1 = phi i32 [ %47, %filter_frame.exit ], [ 0, %50 ], [ 0, %15 ], [ %18, %.critedge ], [ 0, %57 ], [ 0, %59 ], [ 0, %56 ]
  call void @llvm.lifetime.end.p0(i64 8, ptr nonnull %5) #10
  call void @llvm.lifetime.end.p0(i64 4, ptr nonnull %4) #10
  call void @llvm.lifetime.end.p0(i64 8, ptr nonnull %3) #10
  ret i32 %.1
}